target datalayout = "e-m:e-p270:32:32-p271:32:32-p272:64:64-i64:64-i128:128-f80:128-n8:16:32:64-S128"
target triple = "x86_64-pc-linux-gnu"

%class.QString = type { %struct.QArrayDataPointer }
%struct.QArrayDataPointer = type { ptr, ptr, i64 }
%class.ProgressFrame = type { %class.QFrame, ptr, %struct.progdlg, %class.QString, %class.QString, i8, ptr, i32, ptr, ptr }
%class.QFrame = type { %class.QWidget }
%class.QWidget = type { %class.QObject, %class.QPaintDevice.base, ptr }
%class.QObject = type { ptr, %class.QScopedPointer }
%class.QScopedPointer = type { ptr }
%class.QPaintDevice.base = type <{ ptr, i16 }>
%struct.progdlg = type { ptr, ptr }
%class.QVariant = type { %"struct.QVariant::Private" }
%"struct.QVariant::Private" = type { %union.anon, i64 }
%union.anon = type { ptr, [16 x i8] }
%class.QEasingCurve = type { ptr }
%class.QTimerEvent = type <{ %class.QEvent, i32, [4 x i8] }>
%class.QEvent = type { ptr, i16, i8, i8, i8, i8, i16 }

; Function Attrs: mustprogress nounwind null_pointer_is_valid sspstrong uwtable
define linkonce_odr noundef i32 @_ZNK11QTimerEvent7timerIdEv(ptr noundef align 8 dereferenceable_or_null(20) %0) #8 comdat align 2 {
  %2 = alloca ptr, align 8
  store ptr %0, ptr %2, align 8
  %3 = load ptr, ptr %2, align 8
  %4 = getelementptr inbounds nuw %class.QTimerEvent, ptr %3, i32 0, i32 1
  %5 = load i32, ptr %4, align 8
  ret i32 %5
}

; Function Attrs: mustprogress null_pointer_is_valid sspstrong uwtable
define void @_ZN13ProgressFrame10timerEventEP11QTimerEvent(ptr noundef align 8 dereferenceable_or_null(152) %0, ptr noundef %1) unnamed_addr #0 align 2 personality ptr @__gxx_personality_v0 {
  %3 = alloca ptr, align 8
  %4 = alloca ptr, align 8
  %5 = alloca %class.QVariant, align 8
  %6 = alloca ptr, align 8
  %7 = alloca i32, align 4
  %8 = alloca %class.QVariant, align 8
  %9 = alloca %class.QEasingCurve, align 8
  store ptr %0, ptr %3, align 8
  store ptr %1, ptr %4, align 8
  %10 = load ptr, ptr %3, align 8
  %11 = load ptr, ptr %4, align 8
  %12 = call noundef i32 @_ZNK11QTimerEvent7timerIdEv(ptr noundef align 8 dereferenceable_or_null(20) %11)
  %13 = getelementptr inbounds nuw %class.ProgressFrame, ptr %10, i32 0, i32 7
  %14 = load i32, ptr %13, align 8
  %15 = icmp eq i32 %12, %14
  br i1 %15, label %16, label %47

16:                                               ; preds = %2
  %17 = getelementptr inbounds nuw %class.ProgressFrame, ptr %10, i32 0, i32 7
  %18 = load i32, ptr %17, align 8
  call void @_ZN7QObject9killTimerEi(ptr noundef align 8 dereferenceable_or_null(16) %10, i32 noundef %18)
  %19 = getelementptr inbounds nuw %class.ProgressFrame, ptr %10, i32 0, i32 7
  store i32 -1, ptr %19, align 8
  %20 = getelementptr inbounds nuw %class.ProgressFrame, ptr %10, i32 0, i32 8
  %21 = load ptr, ptr %20, align 8
  call void @_ZN7QWidget17setGraphicsEffectEP15QGraphicsEffect(ptr noundef align 8 dereferenceable_or_null(40) %10, ptr noundef %21)
  %22 = getelementptr inbounds nuw %class.ProgressFrame, ptr %10, i32 0, i32 9
  %23 = load ptr, ptr %22, align 8
  call void @_ZN17QVariantAnimation11setDurationEi(ptr noundef align 8 dereferenceable_or_null(16) %23, i32 noundef 200)
  %24 = getelementptr inbounds nuw %class.ProgressFrame, ptr %10, i32 0, i32 9
  %25 = load ptr, ptr %24, align 8
  call void @llvm.lifetime.start.p0(i64 32, ptr %5) #16
  call void @_ZN8QVariantC1Ed(ptr noundef align 8 dereferenceable_or_null(32) %5, double noundef 1.000000e-01)
  invoke void @_ZN17QVariantAnimation13setStartValueERK8QVariant(ptr noundef align 8 dereferenceable_or_null(16) %25, ptr noundef align 8 dereferenceable(32) %5)
          to label %26 unwind label %35

26:                                               ; preds = %16
  call void @_ZN8QVariantD1Ev(ptr noundef align 8 dereferenceable_or_null(32) %5) #16
  call void @llvm.lifetime.end.p0(i64 32, ptr %5) #16
  %27 = getelementptr inbounds nuw %class.ProgressFrame, ptr %10, i32 0, i32 9
  %28 = load ptr, ptr %27, align 8
  call void @llvm.lifetime.start.p0(i64 32, ptr %8) #16
  call void @_ZN8QVariantC1Ed(ptr noundef align 8 dereferenceable_or_null(32) %8, double noundef 1.000000e+00)
  invoke void @_ZN17QVariantAnimation11setEndValueERK8QVariant(ptr noundef align 8 dereferenceable_or_null(16) %28, ptr noundef align 8 dereferenceable(32) %8)
          to label %29 unwind label %39

29:                                               ; preds = %26
  call void @_ZN8QVariantD1Ev(ptr noundef align 8 dereferenceable_or_null(32) %8) #16
  call void @llvm.lifetime.end.p0(i64 32, ptr %8) #16
  %30 = getelementptr inbounds nuw %class.ProgressFrame, ptr %10, i32 0, i32 9
  %31 = load ptr, ptr %30, align 8
  call void @llvm.lifetime.start.p0(i64 8, ptr %9) #16
  call void @_ZN12QEasingCurveC1ENS_4TypeE(ptr noundef align 8 dereferenceable_or_null(8) %9, i32 noundef 3)
  invoke void @_ZN17QVariantAnimation14setEasingCurveERK12QEasingCurve(ptr noundef align 8 dereferenceable_or_null(16) %31, ptr noundef align 8 dereferenceable(8) %9)
          to label %32 unwind label %43

32:                                               ; preds = %29
  call void @_ZN12QEasingCurveD1Ev(ptr noundef align 8 dereferenceable_or_null(8) %9) #16
  call void @llvm.lifetime.end.p0(i64 8, ptr %9) #16
  %33 = getelementptr inbounds nuw %class.ProgressFrame, ptr %10, i32 0, i32 9
  %34 = load ptr, ptr %33, align 8
  call void @_ZN18QAbstractAnimation5startENS_14DeletionPolicyE(ptr noundef align 8 dereferenceable_or_null(16) %34, i32 noundef 0)
  call void @_ZN7QWidget4showEv(ptr noundef align 8 dereferenceable_or_null(40) %10)
  br label %49

35:                                               ; preds = %16
  %36 = landingpad { ptr, i32 }
          cleanup
  %37 = extractvalue { ptr, i32 } %36, 0
  store ptr %37, ptr %6, align 8
  %38 = extractvalue { ptr, i32 } %36, 1
  store i32 %38, ptr %7, align 4
  call void @_ZN8QVariantD1Ev(ptr noundef align 8 dereferenceable_or_null(32) %5) #16
  call void @llvm.lifetime.end.p0(i64 32, ptr %5) #16
  br label %50

39:                                               ; preds = %26
  %40 = landingpad { ptr, i32 }
          cleanup
  %41 = extractvalue { ptr, i32 } %40, 0
  store ptr %41, ptr %6, align 8
  %42 = extractvalue { ptr, i32 } %40, 1
  store i32 %42, ptr %7, align 4
  call void @_ZN8QVariantD1Ev(ptr noundef align 8 dereferenceable_or_null(32) %8) #16
  call void @llvm.lifetime.end.p0(i64 32, ptr %8) #16
  br label %50

43:                                               ; preds = %29
  %44 = landingpad { ptr, i32 }
          cleanup
  %45 = extractvalue { ptr, i32 } %44, 0
  store ptr %45, ptr %6, align 8
  %46 = extractvalue { ptr, i32 } %44, 1
  store i32 %46, ptr %7, align 4
  call void @_ZN12QEasingCurveD1Ev(ptr noundef align 8 dereferenceable_or_null(8) %9) #16
  call void @llvm.lifetime.end.p0(i64 8, ptr %9) #16
  br label %50

47:                                               ; preds = %2
  %48 = load ptr, ptr %4, align 8
  call void @_ZN7QObject10timerEventEP11QTimerEvent(ptr noundef align 8 dereferenceable_or_null(16) %10, ptr noundef %48)
  br label %49

49:                                               ; preds = %47, %32
  ret void

50:                                               ; preds = %43, %39, %35
  %51 = load ptr, ptr %6, align 8
  %52 = load i32, ptr %7, align 4
  %53 = insertvalue { ptr, i32 } poison, ptr %51, 0
  %54 = insertvalue { ptr, i32 } %53, i32 %52, 1
  resume { ptr, i32 } %54
}