; Function Attrs: mustprogress null_pointer_is_valid sspstrong uwtable
define void @_ZN13ProgressFrame10timerEventEP11QTimerEvent(ptr noundef align 8 dereferenceable_or_null(152) %0, ptr noundef %1) unnamed_addr #0 align 2 personality ptr @__gxx_personality_v0 {
  %3 = alloca %class.QVariant, align 8
  %4 = alloca %class.QVariant, align 8
  %5 = alloca %class.QEasingCurve, align 8
  %6 = getelementptr inbounds nuw i8, ptr %1, i64 16
  %7 = load i32, ptr %6, align 8
  %8 = getelementptr inbounds nuw i8, ptr %0, i64 128
  %9 = load i32, ptr %8, align 8
  %10 = icmp eq i32 %7, %9
  br i1 %10, label %11, label %29

11:                                               ; preds = %2
  tail call void @_ZN7QObject9killTimerEi(ptr noundef align 8 dereferenceable_or_null(16) %0, i32 noundef %7)
  store i32 -1, ptr %8, align 8
  %12 = getelementptr inbounds nuw i8, ptr %0, i64 136
  %13 = load ptr, ptr %12, align 8
  tail call void @_ZN7QWidget17setGraphicsEffectEP15QGraphicsEffect(ptr noundef align 8 dereferenceable_or_null(40) %0, ptr noundef %13)
  %14 = getelementptr inbounds nuw i8, ptr %0, i64 144
  %15 = load ptr, ptr %14, align 8
  tail call void @_ZN17QVariantAnimation11setDurationEi(ptr noundef align 8 dereferenceable_or_null(16) %15, i32 noundef 200)
  %16 = load ptr, ptr %14, align 8
  call void @llvm.lifetime.start.p0(i64 32, ptr nonnull %3) #11
  call void @_ZN8QVariantC1Ed(ptr noundef nonnull align 8 dereferenceable_or_null(32) %3, double noundef 1.000000e-01)
  invoke void @_ZN17QVariantAnimation13setStartValueERK8QVariant(ptr noundef align 8 dereferenceable_or_null(16) %16, ptr noundef nonnull align 8 dereferenceable(32) %3)
          to label %17 unwind label %23

17:                                               ; preds = %11
  call void @_ZN8QVariantD1Ev(ptr noundef nonnull align 8 dereferenceable_or_null(32) %3) #11
  call void @llvm.lifetime.end.p0(i64 32, ptr nonnull %3) #11
  %18 = load ptr, ptr %14, align 8
  call void @llvm.lifetime.start.p0(i64 32, ptr nonnull %4) #11
  call void @_ZN8QVariantC1Ed(ptr noundef nonnull align 8 dereferenceable_or_null(32) %4, double noundef 1.000000e+00)
  invoke void @_ZN17QVariantAnimation11setEndValueERK8QVariant(ptr noundef align 8 dereferenceable_or_null(16) %18, ptr noundef nonnull align 8 dereferenceable(32) %4)
          to label %19 unwind label %25

19:                                               ; preds = %17
  call void @_ZN8QVariantD1Ev(ptr noundef nonnull align 8 dereferenceable_or_null(32) %4) #11
  call void @llvm.lifetime.end.p0(i64 32, ptr nonnull %4) #11
  %20 = load ptr, ptr %14, align 8
  call void @llvm.lifetime.start.p0(i64 8, ptr nonnull %5) #11
  call void @_ZN12QEasingCurveC1ENS_4TypeE(ptr noundef nonnull align 8 dereferenceable_or_null(8) %5, i32 noundef 3)
  invoke void @_ZN17QVariantAnimation14setEasingCurveERK12QEasingCurve(ptr noundef align 8 dereferenceable_or_null(16) %20, ptr noundef nonnull align 8 dereferenceable(8) %5)
          to label %21 unwind label %27

21:                                               ; preds = %19
  call void @_ZN12QEasingCurveD1Ev(ptr noundef nonnull align 8 dereferenceable_or_null(8) %5) #11
  call void @llvm.lifetime.end.p0(i64 8, ptr nonnull %5) #11
  %22 = load ptr, ptr %14, align 8
  call void @_ZN18QAbstractAnimation5startENS_14DeletionPolicyE(ptr noundef align 8 dereferenceable_or_null(16) %22, i32 noundef 0)
  call void @_ZN7QWidget4showEv(ptr noundef align 8 dereferenceable_or_null(40) %0)
  br label %30

23:                                               ; preds = %11
  %24 = landingpad { ptr, i32 }
          cleanup
  call void @_ZN8QVariantD1Ev(ptr noundef nonnull align 8 dereferenceable_or_null(32) %3) #11
  call void @llvm.lifetime.end.p0(i64 32, ptr nonnull %3) #11
  br label %31

25:                                               ; preds = %17
  %26 = landingpad { ptr, i32 }
          cleanup
  call void @_ZN8QVariantD1Ev(ptr noundef nonnull align 8 dereferenceable_or_null(32) %4) #11
  call void @llvm.lifetime.end.p0(i64 32, ptr nonnull %4) #11
  br label %31

27:                                               ; preds = %19
  %28 = landingpad { ptr, i32 }
          cleanup
  call void @_ZN12QEasingCurveD1Ev(ptr noundef nonnull align 8 dereferenceable_or_null(8) %5) #11
  call void @llvm.lifetime.end.p0(i64 8, ptr nonnull %5) #11
  br label %31

29:                                               ; preds = %2
  tail call void @_ZN7QObject10timerEventEP11QTimerEvent(ptr noundef align 8 dereferenceable_or_null(16) %0, ptr noundef %1)
  br label %30

30:                                               ; preds = %29, %21
  ret void

31:                                               ; preds = %27, %25, %23
  %.pn = phi { ptr, i32 } [ %28, %27 ], [ %26, %25 ], [ %24, %23 ]
  resume { ptr, i32 } %.pn
}